target datalayout = "e-m:e-p270:32:32-p271:32:32-p272:64:64-i64:64-i128:128-f80:128-n8:16:32:64-S128"
target triple = "x86_64-pc-linux-gnu"

%"class.std::unique_ptr.335" = type { %"struct.std::__uniq_ptr_data.336" }
%"struct.std::__uniq_ptr_data.336" = type { %"class.std::__uniq_ptr_impl.337" }
%"class.std::__uniq_ptr_impl.337" = type { %"class.std::tuple.338" }
%"class.std::tuple.338" = type { %"struct.std::_Tuple_impl.339" }
%"struct.std::_Tuple_impl.339" = type { %"struct.std::_Head_base.342" }
%"struct.std::_Head_base.342" = type { ptr }
%struct.___itt_domain = type { i32, ptr, ptr, i32, ptr, ptr }

@_ZN2cv5gimpl15gapi_itt_domainE = external global ptr, align 8
@__itt_task_end_ptr__3_0 = external global ptr, align 8

; Function Attrs: mustprogress nounwind uwtable
define internal noundef nonnull align 1 dereferenceable(1) ptr @"_ZNSt10_Head_baseILm1EZNK2cv5gimpl12_GLOBAL__N_13$_0clEP20___itt_string_handleEUlPiE_Lb1EE7_M_headERS8_"(ptr noundef nonnull align 1 dereferenceable(1) %0) #5 align 2 {
  %2 = alloca ptr, align 8
  store ptr %0, ptr %2, align 8, !tbaa !2471
  %3 = load ptr, ptr %2, align 8, !tbaa !2471
  ret ptr %3
}

; Function Attrs: mustprogress nounwind uwtable
define internal noundef nonnull align 1 dereferenceable(1) ptr @"_ZNSt11_Tuple_implILm1EJZNK2cv5gimpl12_GLOBAL__N_13$_0clEP20___itt_string_handleEUlPiE_EE7_M_headERS8_"(ptr noundef nonnull align 1 dereferenceable(1) %0) #5 align 2 {
  %2 = alloca ptr, align 8
  store ptr %0, ptr %2, align 8, !tbaa !2465
  %3 = load ptr, ptr %2, align 8, !tbaa !2465
  %4 = call noundef nonnull align 1 dereferenceable(1) ptr @"_ZNSt10_Head_baseILm1EZNK2cv5gimpl12_GLOBAL__N_13$_0clEP20___itt_string_handleEUlPiE_Lb1EE7_M_headERS8_"(ptr noundef nonnull align 1 dereferenceable(1) %3) #3
  ret ptr %4
}

; Function Attrs: mustprogress nounwind uwtable
define linkonce_odr hidden noundef nonnull align 8 dereferenceable(8) ptr @_ZNSt10_Head_baseILm0EPiLb0EE7_M_headERS1_(ptr noundef nonnull align 8 dereferenceable(8) %0) #5 comdat align 2 {
  %2 = alloca ptr, align 8
  store ptr %0, ptr %2, align 8, !tbaa !2467
  %3 = load ptr, ptr %2, align 8, !tbaa !2467
  %4 = getelementptr inbounds nuw %"struct.std::_Head_base.342", ptr %3, i32 0, i32 0
  ret ptr %4
}

; Function Attrs: mustprogress nounwind uwtable
define internal noundef nonnull align 1 dereferenceable(1) ptr @"_ZSt12__get_helperILm1EZNK2cv5gimpl12_GLOBAL__N_13$_0clEP20___itt_string_handleEUlPiE_JEERT0_RSt11_Tuple_implIXT_EJS8_DpT1_EE"(ptr noundef nonnull align 1 dereferenceable(1) %0) #5 {
  %2 = alloca ptr, align 8
  store ptr %0, ptr %2, align 8, !tbaa !2465
  %3 = load ptr, ptr %2, align 8, !tbaa !2465
  %4 = call noundef nonnull align 1 dereferenceable(1) ptr @"_ZNSt11_Tuple_implILm1EJZNK2cv5gimpl12_GLOBAL__N_13$_0clEP20___itt_string_handleEUlPiE_EE7_M_headERS8_"(ptr noundef nonnull align 1 dereferenceable(1) %3) #3
  ret ptr %4
}

; Function Attrs: mustprogress nounwind uwtable
define internal noundef nonnull align 8 dereferenceable(8) ptr @"_ZNSt11_Tuple_implILm0EJPiZNK2cv5gimpl12_GLOBAL__N_13$_0clEP20___itt_string_handleEUlS0_E_EE7_M_headERS8_"(ptr noundef nonnull align 8 dereferenceable(8) %0) #5 align 2 {
  %2 = alloca ptr, align 8
  store ptr %0, ptr %2, align 8, !tbaa !2463
  %3 = load ptr, ptr %2, align 8, !tbaa !2463
  %4 = call noundef nonnull align 8 dereferenceable(8) ptr @_ZNSt10_Head_baseILm0EPiLb0EE7_M_headERS1_(ptr noundef nonnull align 8 dereferenceable(8) %3) #3
  ret ptr %4
}

; Function Attrs: mustprogress nounwind uwtable
define internal noundef nonnull align 1 dereferenceable(1) ptr @"_ZSt3getILm1EJPiZNK2cv5gimpl12_GLOBAL__N_13$_0clEP20___itt_string_handleEUlS0_E_EERNSt13tuple_elementIXT_ESt5tupleIJDpT0_EEE4typeERSC_"(ptr noundef nonnull align 8 dereferenceable(8) %0) #5 {
  %2 = alloca ptr, align 8
  store ptr %0, ptr %2, align 8, !tbaa !2461
  %3 = load ptr, ptr %2, align 8, !tbaa !2461
  %4 = call noundef nonnull align 1 dereferenceable(1) ptr @"_ZSt12__get_helperILm1EZNK2cv5gimpl12_GLOBAL__N_13$_0clEP20___itt_string_handleEUlPiE_JEERT0_RSt11_Tuple_implIXT_EJS8_DpT1_EE"(ptr noundef nonnull align 1 dereferenceable(1) %3) #3
  ret ptr %4
}

; Function Attrs: mustprogress nounwind uwtable
define internal noundef nonnull align 8 dereferenceable(8) ptr @"_ZSt12__get_helperILm0EPiJZNK2cv5gimpl12_GLOBAL__N_13$_0clEP20___itt_string_handleEUlS0_E_EERT0_RSt11_Tuple_implIXT_EJS8_DpT1_EE"(ptr noundef nonnull align 8 dereferenceable(8) %0) #5 {
  %2 = alloca ptr, align 8
  store ptr %0, ptr %2, align 8, !tbaa !2463
  %3 = load ptr, ptr %2, align 8, !tbaa !2463
  %4 = call noundef nonnull align 8 dereferenceable(8) ptr @"_ZNSt11_Tuple_implILm0EJPiZNK2cv5gimpl12_GLOBAL__N_13$_0clEP20___itt_string_handleEUlS0_E_EE7_M_headERS8_"(ptr noundef nonnull align 8 dereferenceable(8) %3) #3
  ret ptr %4
}

; Function Attrs: mustprogress nounwind uwtable
define internal noundef nonnull align 1 dereferenceable(1) ptr @"_ZNSt15__uniq_ptr_implIiZNK2cv5gimpl12_GLOBAL__N_13$_0clEP20___itt_string_handleEUlPiE_E10_M_deleterEv"(ptr noundef nonnull align 8 dereferenceable(8) %0) #5 align 2 {
  %2 = alloca ptr, align 8
  store ptr %0, ptr %2, align 8, !tbaa !2459
  %3 = load ptr, ptr %2, align 8
  %4 = getelementptr inbounds nuw %"class.std::__uniq_ptr_impl.337", ptr %3, i32 0, i32 0
  %5 = call noundef nonnull align 1 dereferenceable(1) ptr @"_ZSt3getILm1EJPiZNK2cv5gimpl12_GLOBAL__N_13$_0clEP20___itt_string_handleEUlS0_E_EERNSt13tuple_elementIXT_ESt5tupleIJDpT0_EEE4typeERSC_"(ptr noundef nonnull align 8 dereferenceable(8) %4) #3
  ret ptr %5
}

; Function Attrs: mustprogress nounwind uwtable
define internal noundef nonnull align 8 dereferenceable(8) ptr @"_ZSt3getILm0EJPiZNK2cv5gimpl12_GLOBAL__N_13$_0clEP20___itt_string_handleEUlS0_E_EERNSt13tuple_elementIXT_ESt5tupleIJDpT0_EEE4typeERSC_"(ptr noundef nonnull align 8 dereferenceable(8) %0) #5 {
  %2 = alloca ptr, align 8
  store ptr %0, ptr %2, align 8, !tbaa !2461
  %3 = load ptr, ptr %2, align 8, !tbaa !2461
  %4 = call noundef nonnull align 8 dereferenceable(8) ptr @"_ZSt12__get_helperILm0EPiJZNK2cv5gimpl12_GLOBAL__N_13$_0clEP20___itt_string_handleEUlS0_E_EERT0_RSt11_Tuple_implIXT_EJS8_DpT1_EE"(ptr noundef nonnull align 8 dereferenceable(8) %3) #3
  ret ptr %4
}

; Function Attrs: inlinehint mustprogress uwtable
define internal void @"_ZZNK2cv5gimpl12_GLOBAL__N_13$_0clEP20___itt_string_handleENKUlPiE_clES5_"(ptr noundef nonnull align 1 dereferenceable(1) %0, ptr noundef %1) #6 align 2 {
  %3 = alloca ptr, align 8
  %4 = alloca ptr, align 8
  store ptr %0, ptr %3, align 8, !tbaa !264
  store ptr %1, ptr %4, align 8, !tbaa !237
  %5 = load ptr, ptr @_ZN2cv5gimpl15gapi_itt_domainE, align 8, !tbaa !580
  %6 = icmp eq ptr %5, null
  br i1 %6, label %7, label %8

7:                                                ; preds = %2
  br label %23

8:                                                ; preds = %2
  %9 = load ptr, ptr @_ZN2cv5gimpl15gapi_itt_domainE, align 8, !tbaa !580
  %10 = getelementptr inbounds nuw %struct.___itt_domain, ptr %9, i32 0, i32 0
  %11 = load volatile i32, ptr %10, align 8, !tbaa !582
  %12 = icmp ne i32 %11, 0
  br i1 %12, label %14, label %13

13:                                               ; preds = %8
  br label %22

14:                                               ; preds = %8
  %15 = load ptr, ptr @__itt_task_end_ptr__3_0, align 8, !tbaa !264
  %16 = icmp ne ptr %15, null
  br i1 %16, label %18, label %17

17:                                               ; preds = %14
  br label %21

18:                                               ; preds = %14
  %19 = load ptr, ptr @__itt_task_end_ptr__3_0, align 8, !tbaa !264
  %20 = load ptr, ptr @_ZN2cv5gimpl15gapi_itt_domainE, align 8, !tbaa !580
  call void %19(ptr noundef %20)
  br label %21

21:                                               ; preds = %18, %17
  br label %22

22:                                               ; preds = %21, %13
  br label %23

23:                                               ; preds = %22, %7
  ret void
}

; Function Attrs: mustprogress nounwind uwtable
define internal noundef nonnull align 1 dereferenceable(1) ptr @"_ZNSt10unique_ptrIiZNK2cv5gimpl12_GLOBAL__N_13$_0clEP20___itt_string_handleEUlPiE_E11get_deleterEv"(ptr noundef nonnull align 8 dereferenceable(8) %0) #5 align 2 {
  %2 = alloca ptr, align 8
  store ptr %0, ptr %2, align 8, !tbaa !587
  %3 = load ptr, ptr %2, align 8
  %4 = getelementptr inbounds nuw %"class.std::unique_ptr.335", ptr %3, i32 0, i32 0
  %5 = call noundef nonnull align 1 dereferenceable(1) ptr @"_ZNSt15__uniq_ptr_implIiZNK2cv5gimpl12_GLOBAL__N_13$_0clEP20___itt_string_handleEUlPiE_E10_M_deleterEv"(ptr noundef nonnull align 8 dereferenceable(8) %4) #3
  ret ptr %5
}

; Function Attrs: mustprogress nounwind uwtable
define internal noundef nonnull align 8 dereferenceable(8) ptr @"_ZNSt15__uniq_ptr_implIiZNK2cv5gimpl12_GLOBAL__N_13$_0clEP20___itt_string_handleEUlPiE_E6_M_ptrEv"(ptr noundef nonnull align 8 dereferenceable(8) %0) #5 align 2 {
  %2 = alloca ptr, align 8
  store ptr %0, ptr %2, align 8, !tbaa !2459
  %3 = load ptr, ptr %2, align 8
  %4 = getelementptr inbounds nuw %"class.std::__uniq_ptr_impl.337", ptr %3, i32 0, i32 0
  %5 = call noundef nonnull align 8 dereferenceable(8) ptr @"_ZSt3getILm0EJPiZNK2cv5gimpl12_GLOBAL__N_13$_0clEP20___itt_string_handleEUlS0_E_EERNSt13tuple_elementIXT_ESt5tupleIJDpT0_EEE4typeERSC_"(ptr noundef nonnull align 8 dereferenceable(8) %4) #3
  ret ptr %5
}

; Function Attrs: mustprogress nounwind uwtable
define internal void @"_ZNSt10unique_ptrIiZNK2cv5gimpl12_GLOBAL__N_13$_0clEP20___itt_string_handleEUlPiE_ED2Ev"(ptr noundef nonnull align 8 dereferenceable(8) %0) unnamed_addr #5 align 2 personality ptr @__gxx_personality_v0 {
  %2 = alloca ptr, align 8
  %3 = alloca ptr, align 8
  store ptr %0, ptr %2, align 8, !tbaa !587
  %4 = load ptr, ptr %2, align 8
  call void @llvm.lifetime.start.p0(i64 8, ptr %3) #3
  %5 = getelementptr inbounds nuw %"class.std::unique_ptr.335", ptr %4, i32 0, i32 0
  %6 = call noundef nonnull align 8 dereferenceable(8) ptr @"_ZNSt15__uniq_ptr_implIiZNK2cv5gimpl12_GLOBAL__N_13$_0clEP20___itt_string_handleEUlPiE_E6_M_ptrEv"(ptr noundef nonnull align 8 dereferenceable(8) %5) #3
  store ptr %6, ptr %3, align 8, !tbaa !614
  %7 = load ptr, ptr %3, align 8, !tbaa !614
  %8 = load ptr, ptr %7, align 8, !tbaa !237
  %9 = icmp ne ptr %8, null
  br i1 %9, label %10, label %15

10:                                               ; preds = %1
  %11 = call noundef nonnull align 1 dereferenceable(1) ptr @"_ZNSt10unique_ptrIiZNK2cv5gimpl12_GLOBAL__N_13$_0clEP20___itt_string_handleEUlPiE_E11get_deleterEv"(ptr noundef nonnull align 8 dereferenceable(8) %4) #3
  %12 = load ptr, ptr %3, align 8, !tbaa !614
  %13 = load ptr, ptr %12, align 8, !tbaa !237
  invoke void @"_ZZNK2cv5gimpl12_GLOBAL__N_13$_0clEP20___itt_string_handleENKUlPiE_clES5_"(ptr noundef nonnull align 1 dereferenceable(1) %11, ptr noundef %13)
          to label %14 unwind label %17

14:                                               ; preds = %10
  br label %15

15:                                               ; preds = %14, %1
  %16 = load ptr, ptr %3, align 8, !tbaa !614
  store ptr null, ptr %16, align 8, !tbaa !237
  call void @llvm.lifetime.end.p0(i64 8, ptr %3) #3
  ret void

17:                                               ; preds = %10
  %18 = landingpad { ptr, i32 }
          catch ptr null
  %19 = extractvalue { ptr, i32 } %18, 0
  call void @__clang_call_terminate(ptr %19) #29
  unreachable
}