; Function Attrs: mustprogress nounwind uwtable
define internal fastcc void @"_ZNSt10unique_ptrIiZNK2cv5gimpl12_GLOBAL__N_13$_0clEP20___itt_string_handleEUlPiE_ED2Ev"(ptr noundef nonnull align 8 captures(none) dereferenceable(8) %0) unnamed_addr #9 align 2 personality ptr @__gxx_personality_v0 {
  %2 = load ptr, ptr %0, align 8, !tbaa !775
  %.not = icmp eq ptr %2, null
  br i1 %.not, label %"_ZZNK2cv5gimpl12_GLOBAL__N_13$_0clEP20___itt_string_handleENKUlPiE_clES5_.exit", label %3

3:                                                ; preds = %1
  %4 = load ptr, ptr @_ZN2cv5gimpl15gapi_itt_domainE, align 8, !tbaa !863
  %5 = icmp eq ptr %4, null
  br i1 %5, label %"_ZZNK2cv5gimpl12_GLOBAL__N_13$_0clEP20___itt_string_handleENKUlPiE_clES5_.exit", label %6

6:                                                ; preds = %3
  %7 = load volatile i32, ptr %4, align 8, !tbaa !865
  %8 = icmp ne i32 %7, 0
  %9 = load ptr, ptr @__itt_task_end_ptr__3_0, align 8
  %10 = icmp ne ptr %9, null
  %or.cond.i = select i1 %8, i1 %10, i1 false
  br i1 %or.cond.i, label %11, label %"_ZZNK2cv5gimpl12_GLOBAL__N_13$_0clEP20___itt_string_handleENKUlPiE_clES5_.exit"

11:                                               ; preds = %6
  invoke void %9(ptr noundef nonnull %4)
          to label %"_ZZNK2cv5gimpl12_GLOBAL__N_13$_0clEP20___itt_string_handleENKUlPiE_clES5_.exit" unwind label %12

"_ZZNK2cv5gimpl12_GLOBAL__N_13$_0clEP20___itt_string_handleENKUlPiE_clES5_.exit": ; preds = %6, %3, %11, %1
  store ptr null, ptr %0, align 8, !tbaa !775
  ret void

12:                                               ; preds = %11
  %13 = landingpad { ptr, i32 }
          catch ptr null
  %14 = extractvalue { ptr, i32 } %13, 0
  tail call void @__clang_call_terminate(ptr %14) #34
  unreachable
}